; Function Attrs: mustprogress nofree nounwind willreturn memory(write, argmem: none, inaccessiblemem: readwrite) uwtable
define noalias noundef ptr @Abc_CexMakeTriv(i32 noundef %0, i32 noundef %1, i32 noundef %2, i32 noundef %3) local_unnamed_addr #0 {
  %5 = srem i32 %3, %2
  %6 = sdiv i32 %3, %2
  %7 = add nsw i32 %6, 1
  %8 = mul nsw i32 %7, %1
  %9 = add nsw i32 %8, %0
  %10 = ashr i32 %9, 5
  %11 = and i32 %9, 31
  %12 = icmp ne i32 %11, 0
  %13 = zext i1 %12 to i32
  %14 = add nsw i32 %10, %13
  %15 = sext i32 %14 to i64
  %16 = shl nsw i64 %15, 2
  %17 = add nsw i64 %16, 20
  %calloc.i = tail call ptr @calloc(i64 1, i64 %17)
  %18 = getelementptr inbounds nuw i8, ptr %calloc.i, i64 8
  store i32 %0, ptr %18, align 4, !tbaa !3
  %19 = getelementptr inbounds nuw i8, ptr %calloc.i, i64 12
  store i32 %1, ptr %19, align 4, !tbaa !8
  %20 = getelementptr inbounds nuw i8, ptr %calloc.i, i64 16
  store i32 %9, ptr %20, align 4, !tbaa !9
  store i32 %5, ptr %calloc.i, align 4, !tbaa !10
  %21 = getelementptr inbounds nuw i8, ptr %calloc.i, i64 4
  store i32 %6, ptr %21, align 4, !tbaa !11
  ret ptr %calloc.i
}